; Function Attrs: nofree nounwind uwtable
define internal noundef i32 @config_print_callback(ptr noundef readonly captures(none) %0, ptr noundef readonly captures(none) %1, ptr readnone captures(none) %2, ptr noundef readonly captures(none) %3) #9 {
  %5 = tail call i32 @strcmp(ptr noundef nonnull dereferenceable(1) %3, ptr noundef nonnull dereferenceable(1) %0) #16
  %.not = icmp eq i32 %5, 0
  br i1 %.not, label %6, label %7

6:                                                ; preds = %4
  %puts = tail call i32 @puts(ptr nonnull dereferenceable(1) %1)
  br label %7

7:                                                ; preds = %6, %4
  ret i32 0
}